target datalayout = "e-m:e-p270:32:32-p271:32:32-p272:64:64-i64:64-i128:128-f80:128-n8:16:32:64-S128"
target triple = "x86_64-pc-linux-gnu"

%struct.__va_list_tag = type { i32, i32, ptr, ptr }

@hf_mswsp_ccolumngrouparray_count = internal global i32 0, align 4
@ett_CColumnGroupArray = internal global i32 0, align 4
@.str.1350 = private unnamed_addr constant [16 x i8] c"aGroupArray[%u]\00", align 1

; Function Attrs: null_pointer_is_valid sspstrong uwtable
define internal i32 @parse_CColumnGroupArray(ptr noundef %0, i32 noundef %1, ptr noundef %2, ptr noundef %3, ptr noundef %4, ...) #0 {
  %6 = alloca ptr, align 8
  %7 = alloca i32, align 4
  %8 = alloca ptr, align 8
  %9 = alloca ptr, align 8
  %10 = alloca ptr, align 8
  %11 = alloca ptr, align 8
  %12 = alloca ptr, align 8
  %13 = alloca [1 x %struct.__va_list_tag], align 16
  %14 = alloca ptr, align 8
  %15 = alloca i32, align 4
  %16 = alloca i32, align 4
  store ptr %0, ptr %6, align 8
  store i32 %1, ptr %7, align 4
  store ptr %2, ptr %8, align 8
  store ptr %3, ptr %9, align 8
  store ptr %4, ptr %10, align 8
  call void @llvm.lifetime.start.p0(i64 8, ptr %11) #11
  call void @llvm.lifetime.start.p0(i64 8, ptr %12) #11
  call void @llvm.lifetime.start.p0(i64 24, ptr %13) #11
  call void @llvm.lifetime.start.p0(i64 8, ptr %14) #11
  call void @llvm.lifetime.start.p0(i64 4, ptr %15) #11
  call void @llvm.lifetime.start.p0(i64 4, ptr %16) #11
  %17 = getelementptr inbounds [1 x %struct.__va_list_tag], ptr %13, i64 0, i64 0
  call void @llvm.va_start.p0(ptr %17)
  %18 = call ptr @wmem_packet_scope()
  %19 = load ptr, ptr %10, align 8
  %20 = getelementptr inbounds [1 x %struct.__va_list_tag], ptr %13, i64 0, i64 0
  %21 = call noalias ptr @wmem_strdup_vprintf(ptr noundef %18, ptr noundef %19, ptr noundef %20)
  store ptr %21, ptr %14, align 8
  %22 = getelementptr inbounds [1 x %struct.__va_list_tag], ptr %13, i64 0, i64 0
  call void @llvm.va_end.p0(ptr %22)
  %23 = load ptr, ptr %8, align 8
  %24 = load ptr, ptr %6, align 8
  %25 = load i32, ptr %7, align 4
  %26 = load i32, ptr @ett_CColumnGroupArray, align 4
  %27 = load ptr, ptr %14, align 8
  %28 = call ptr @proto_tree_add_subtree(ptr noundef %23, ptr noundef %24, i32 noundef %25, i32 noundef 0, i32 noundef %26, ptr noundef %12, ptr noundef %27)
  store ptr %28, ptr %11, align 8
  %29 = load ptr, ptr %6, align 8
  %30 = load i32, ptr %7, align 4
  %31 = call i32 @tvb_get_letohl(ptr noundef %29, i32 noundef %30)
  store i32 %31, ptr %15, align 4
  %32 = load ptr, ptr %11, align 8
  %33 = load i32, ptr @hf_mswsp_ccolumngrouparray_count, align 4
  %34 = load ptr, ptr %6, align 8
  %35 = load i32, ptr %7, align 4
  %36 = load i32, ptr %15, align 4
  %37 = call ptr @proto_tree_add_uint(ptr noundef %32, i32 noundef %33, ptr noundef %34, i32 noundef %35, i32 noundef 4, i32 noundef %36)
  %38 = load i32, ptr %7, align 4
  %39 = add i32 %38, 4
  store i32 %39, ptr %7, align 4
  store i32 0, ptr %16, align 4
  br label %40

40:                                               ; preds = %56, %5
  %41 = load i32, ptr %16, align 4
  %42 = load i32, ptr %15, align 4
  %43 = icmp ult i32 %41, %42
  br i1 %43, label %44, label %59

44:                                               ; preds = %40
  %45 = load ptr, ptr %6, align 8
  %46 = load i32, ptr %7, align 4
  %47 = load ptr, ptr %9, align 8
  %48 = load i32, ptr %16, align 4
  %49 = call i32 (ptr, i32, i32, ptr, ptr, ...) @parse_padding(ptr noundef %45, i32 noundef %46, i32 noundef 4, ptr noundef %47, ptr noundef @.str.1350, i32 noundef %48)
  store i32 %49, ptr %7, align 4
  %50 = load ptr, ptr %6, align 8
  %51 = load i32, ptr %7, align 4
  %52 = load ptr, ptr %11, align 8
  %53 = load ptr, ptr %9, align 8
  %54 = load i32, ptr %16, align 4
  %55 = call i32 (ptr, i32, ptr, ptr, ptr, ...) @parse_CColumnGroup(ptr noundef %50, i32 noundef %51, ptr noundef %52, ptr noundef %53, ptr noundef @.str.1350, i32 noundef %54)
  store i32 %55, ptr %7, align 4
  br label %56

56:                                               ; preds = %44
  %57 = load i32, ptr %16, align 4
  %58 = add i32 %57, 1
  store i32 %58, ptr %16, align 4
  br label %40, !llvm.loop !24

59:                                               ; preds = %40
  %60 = load ptr, ptr %12, align 8
  %61 = load ptr, ptr %6, align 8
  %62 = load i32, ptr %7, align 4
  call void @proto_item_set_end(ptr noundef %60, ptr noundef %61, i32 noundef %62)
  %63 = load i32, ptr %7, align 4
  call void @llvm.lifetime.end.p0(i64 4, ptr %16) #11
  call void @llvm.lifetime.end.p0(i64 4, ptr %15) #11
  call void @llvm.lifetime.end.p0(i64 8, ptr %14) #11
  call void @llvm.lifetime.end.p0(i64 24, ptr %13) #11
  call void @llvm.lifetime.end.p0(i64 8, ptr %12) #11
  call void @llvm.lifetime.end.p0(i64 8, ptr %11) #11
  ret i32 %63
}