; Function Attrs: null_pointer_is_valid sspstrong uwtable
define internal void @parse_CColumnGroupArray(ptr noundef %0, i32 noundef %1, ptr noundef %2, ptr noundef %3, ptr readnone captures(none) %4, ...) unnamed_addr #0 {
  %6 = alloca ptr, align 8
  %7 = alloca [1 x %struct.__va_list_tag], align 16
  call void @llvm.lifetime.start.p0(i64 8, ptr nonnull %6) #11
  call void @llvm.lifetime.start.p0(i64 24, ptr nonnull %7) #11
  call void @llvm.va_start.p0(ptr nonnull %7)
  %8 = call ptr @wmem_packet_scope()
  %9 = call noalias ptr @wmem_strdup_vprintf(ptr noundef %8, ptr noundef nonnull @.str.1249, ptr noundef nonnull %7)
  call void @llvm.va_end.p0(ptr nonnull %7)
  %10 = load i32, ptr @ett_CColumnGroupArray, align 4
  %11 = call ptr @proto_tree_add_subtree(ptr noundef %2, ptr noundef %0, i32 noundef %1, i32 noundef 0, i32 noundef %10, ptr noundef nonnull %6, ptr noundef %9)
  %12 = call i32 @tvb_get_letohl(ptr noundef %0, i32 noundef %1)
  %13 = load i32, ptr @hf_mswsp_ccolumngrouparray_count, align 4
  %14 = call ptr @proto_tree_add_uint(ptr noundef %11, i32 noundef %13, ptr noundef %0, i32 noundef %1, i32 noundef 4, i32 noundef %12)
  %15 = add i32 %1, 4
  %.not = icmp eq i32 %12, 0
  br i1 %.not, label %._crit_edge, label %.lr.ph

.lr.ph:                                           ; preds = %5, %.lr.ph
  %.028 = phi i32 [ %18, %.lr.ph ], [ 0, %5 ]
  %.02627 = phi i32 [ %17, %.lr.ph ], [ %15, %5 ]
  %16 = call i32 (ptr, i32, i32, ptr, ptr, ...) @parse_padding(ptr noundef %0, i32 noundef %.02627, i32 noundef 4, ptr noundef %3, ptr noundef nonnull @.str.1350, i32 noundef %.028)
  %17 = call i32 (ptr, i32, ptr, ptr, ptr, ...) @parse_CColumnGroup(ptr noundef %0, i32 noundef %16, ptr noundef %11, ptr poison, ptr nonnull poison, i32 noundef %.028)
  %18 = add nuw i32 %.028, 1
  %exitcond.not = icmp eq i32 %18, %12
  br i1 %exitcond.not, label %._crit_edge, label %.lr.ph, !llvm.loop !25

._crit_edge:                                      ; preds = %.lr.ph, %5
  %.026.lcssa = phi i32 [ %15, %5 ], [ %17, %.lr.ph ]
  %19 = load ptr, ptr %6, align 8
  call void @proto_item_set_end(ptr noundef %19, ptr noundef %0, i32 noundef %.026.lcssa)
  call void @llvm.lifetime.end.p0(i64 24, ptr nonnull %7) #11
  call void @llvm.lifetime.end.p0(i64 8, ptr nonnull %6) #11
  ret void
}